; Function Attrs: mustprogress nofree norecurse nosync nounwind willreturn memory(none) uwtable
define internal i32 @get_log_bin_abs(float noundef %0, i32 noundef %1) #5 {
  %3 = tail call nsz float @llvm.fabs.f32(float %0)
  %4 = tail call nsz float @llvm.log10.f32(float %3)
  %5 = fdiv nsz float %4, 6.000000e+00
  %6 = fadd nsz float %5, 1.000000e+00
  %7 = fcmp nsz ogt float %6, 0.000000e+00
  %8 = select nsz i1 %7, float %6, float 0.000000e+00
  %9 = fcmp nsz ogt float %8, 1.000000e+00
  %..i = select nsz i1 %9, float 1.000000e+00, float %8
  %10 = add nsw i32 %1, -1
  %11 = sitofp i32 %10 to float
  %12 = fmul nsz float %..i, %11
  %13 = tail call i64 @llvm.lrint.i64.f32(float %12)
  %14 = trunc i64 %13 to i32
  ret i32 %14
}